target datalayout = "e-m:e-p270:32:32-p271:32:32-p272:64:64-i64:64-i128:128-f80:128-n8:16:32:64-S128"
target triple = "x86_64-pc-linux-gnu"

%"class.llvm::MCSymbolXCOFF" = type <{ %"class.llvm::MCSymbol", %"class.std::optional", %"class.std::optional.0", [4 x i8], ptr, i16, [6 x i8], %"class.llvm::StringRef", i8, [7 x i8] }>
%"class.llvm::MCSymbol" = type { ptr, i64, i32, %union.anon }
%union.anon = type { i64 }
%"class.std::optional" = type { %"struct.std::_Optional_base" }
%"struct.std::_Optional_base" = type { %"struct.std::_Optional_payload" }
%"struct.std::_Optional_payload" = type { %"struct.std::_Optional_payload_base" }
%"struct.std::_Optional_payload_base" = type { %"union.std::_Optional_payload_base<llvm::XCOFF::StorageClass>::_Storage", i8 }
%"union.std::_Optional_payload_base<llvm::XCOFF::StorageClass>::_Storage" = type { %"struct.std::_Optional_payload_base<llvm::XCOFF::StorageClass>::_Empty_byte" }
%"struct.std::_Optional_payload_base<llvm::XCOFF::StorageClass>::_Empty_byte" = type { i8 }
%"class.std::optional.0" = type { %"struct.std::_Optional_base.1" }
%"struct.std::_Optional_base.1" = type { %"struct.std::_Optional_payload.3" }
%"struct.std::_Optional_payload.3" = type { %"struct.std::_Optional_payload_base.4" }
%"struct.std::_Optional_payload_base.4" = type { %"union.std::_Optional_payload_base<llvm::MCSymbolXCOFF::CodeModel>::_Storage", i8 }
%"union.std::_Optional_payload_base<llvm::MCSymbolXCOFF::CodeModel>::_Storage" = type { %"struct.std::_Optional_payload_base<llvm::MCSymbolXCOFF::CodeModel>::_Empty_byte" }
%"struct.std::_Optional_payload_base<llvm::MCSymbolXCOFF::CodeModel>::_Empty_byte" = type { i8 }
%"class.llvm::StringRef" = type { ptr, i64 }

@_ZN4llvm24DisableABIBreakingChecksE = external global i32, align 4
@_ZN4llvm30VerifyDisableABIBreakingChecksE = weak hidden global ptr @_ZN4llvm24DisableABIBreakingChecksE, align 8

; Function Attrs: mustprogress nounwind uwtable
define dso_local noundef ptr @_ZNK4llvm13MCSymbolXCOFF19getRepresentedCsectEv(ptr noundef nonnull align 8 dereferenceable(73) %0) #0 align 2 {
  %2 = alloca ptr, align 8
  store ptr %0, ptr %2, align 8
  %3 = load ptr, ptr %2, align 8
  %4 = getelementptr inbounds nuw %"class.llvm::MCSymbolXCOFF", ptr %3, i32 0, i32 4
  %5 = load ptr, ptr %4, align 8
  ret ptr %5
}

; Function Attrs: mustprogress nounwind uwtable
define dso_local void @_ZN4llvm13MCSymbolXCOFF19setRepresentedCsectEPNS_14MCSectionXCOFFE(ptr noundef nonnull align 8 dereferenceable(73) %0, ptr noundef %1) #0 align 2 {
  %3 = alloca ptr, align 8
  %4 = alloca ptr, align 8
  store ptr %0, ptr %3, align 8
  store ptr %1, ptr %4, align 8
  %5 = load ptr, ptr %3, align 8
  %6 = load ptr, ptr %4, align 8
  %7 = getelementptr inbounds nuw %"class.llvm::MCSymbolXCOFF", ptr %5, i32 0, i32 4
  store ptr %6, ptr %7, align 8
  ret void
}


!llvm.module.flags = !{!0, !1, !2, !3}

!0 = !{i32 1, !"wchar_size", i32 4}
!1 = !{i32 8, !"PIC Level", i32 2}
!2 = !{i32 7, !"uwtable", i32 2}
!3 = !{i32 7, !"frame-pointer", i32 2}
